target datalayout = "e-m:e-p270:32:32-p271:32:32-p272:64:64-i64:64-i128:128-f80:128-n8:16:32:64-S128"
target triple = "x86_64-pc-linux-gnu"

%class.XMarkStripe = type { %class.XStackList, [56 x i8], %class.XStackList, [56 x i8] }
%class.XStackList = type { ptr }
%class.XMarkStripeSet = type { i64, i64, [48 x i8], [16 x %class.XMarkStripe] }

@XMarkStackSpaceStart = external global i64, align 8

; Function Attrs: mustprogress nounwind uwtable
define linkonce_odr hidden void @_ZNK10XStackListI6XStackI15XMarkStackEntryLm254EEE24decode_versioned_pointerEPKS2_PPS2_Pj(ptr noundef nonnull align 8 dereferenceable(8) %0, ptr noundef %1, ptr noundef %2, ptr noundef %3) #1 comdat align 2 {
  %5 = alloca ptr, align 8
  %6 = alloca ptr, align 8
  %7 = alloca ptr, align 8
  %8 = alloca ptr, align 8
  %9 = alloca i64, align 8
  store ptr %0, ptr %5, align 8
  store ptr %1, ptr %6, align 8
  store ptr %2, ptr %7, align 8
  store ptr %3, ptr %8, align 8
  %10 = load ptr, ptr %6, align 8
  %11 = ptrtoint ptr %10 to i64
  %12 = lshr i64 %11, 32
  store i64 %12, ptr %9, align 8
  %13 = load i64, ptr %9, align 8
  %14 = icmp eq i64 %13, 4294967295
  br i1 %14, label %15, label %17

15:                                               ; preds = %4
  %16 = load ptr, ptr %7, align 8
  store ptr null, ptr %16, align 8
  br label %24

17:                                               ; preds = %4
  %18 = load i64, ptr %9, align 8
  %19 = shl i64 %18, 11
  %20 = load i64, ptr @XMarkStackSpaceStart, align 8
  %21 = add i64 %19, %20
  %22 = inttoptr i64 %21 to ptr
  %23 = load ptr, ptr %7, align 8
  store ptr %22, ptr %23, align 8
  br label %24

24:                                               ; preds = %17, %15
  %25 = load ptr, ptr %6, align 8
  %26 = ptrtoint ptr %25 to i64
  %27 = trunc i64 %26 to i32
  %28 = load ptr, ptr %8, align 8
  store i32 %27, ptr %28, align 4
  ret void
}

; Function Attrs: mustprogress nounwind uwtable
define linkonce_odr hidden noundef zeroext i1 @_ZNK10XStackListI6XStackI15XMarkStackEntryLm254EEE8is_emptyEv(ptr noundef nonnull align 8 dereferenceable(8) %0) #1 comdat align 2 {
  %2 = alloca ptr, align 8
  %3 = alloca ptr, align 8
  %4 = alloca ptr, align 8
  %5 = alloca i32, align 4
  store ptr %0, ptr %2, align 8
  %6 = load ptr, ptr %2, align 8
  %7 = getelementptr inbounds %class.XStackList, ptr %6, i32 0, i32 0
  %8 = load volatile ptr, ptr %7, align 8
  store ptr %8, ptr %3, align 8
  store ptr null, ptr %4, align 8
  store i32 0, ptr %5, align 4
  %9 = load ptr, ptr %3, align 8
  call void @_ZNK10XStackListI6XStackI15XMarkStackEntryLm254EEE24decode_versioned_pointerEPKS2_PPS2_Pj(ptr noundef nonnull align 8 dereferenceable(8) %6, ptr noundef %9, ptr noundef %4, ptr noundef %5)
  %10 = load ptr, ptr %4, align 8
  %11 = icmp eq ptr %10, null
  ret i1 %11
}

; Function Attrs: mustprogress nounwind uwtable
define linkonce_odr hidden noundef zeroext i1 @_ZNK11XMarkStripe8is_emptyEv(ptr noundef nonnull align 64 dereferenceable(72) %0) #1 comdat align 2 {
  %2 = alloca ptr, align 8
  store ptr %0, ptr %2, align 8
  %3 = load ptr, ptr %2, align 8
  %4 = getelementptr inbounds %class.XMarkStripe, ptr %3, i32 0, i32 0
  %5 = call noundef zeroext i1 @_ZNK10XStackListI6XStackI15XMarkStackEntryLm254EEE8is_emptyEv(ptr noundef nonnull align 8 dereferenceable(8) %4)
  br i1 %5, label %6, label %9

6:                                                ; preds = %1
  %7 = getelementptr inbounds %class.XMarkStripe, ptr %3, i32 0, i32 2
  %8 = call noundef zeroext i1 @_ZNK10XStackListI6XStackI15XMarkStackEntryLm254EEE8is_emptyEv(ptr noundef nonnull align 8 dereferenceable(8) %7)
  br label %9

9:                                                ; preds = %6, %1
  %10 = phi i1 [ false, %1 ], [ %8, %6 ]
  ret i1 %10
}

; Function Attrs: mustprogress nounwind uwtable
define hidden noundef zeroext i1 @_ZNK14XMarkStripeSet8is_emptyEv(ptr noundef nonnull align 64 dereferenceable(2112) %0) #1 align 2 {
  %2 = alloca i1, align 1
  %3 = alloca ptr, align 8
  %4 = alloca i64, align 8
  store ptr %0, ptr %3, align 8
  %5 = load ptr, ptr %3, align 8
  store i64 0, ptr %4, align 8
  br label %6

6:                                                ; preds = %18, %1
  %7 = load i64, ptr %4, align 8
  %8 = getelementptr inbounds %class.XMarkStripeSet, ptr %5, i32 0, i32 0
  %9 = load i64, ptr %8, align 64
  %10 = icmp ult i64 %7, %9
  br i1 %10, label %11, label %21

11:                                               ; preds = %6
  %12 = getelementptr inbounds %class.XMarkStripeSet, ptr %5, i32 0, i32 3
  %13 = load i64, ptr %4, align 8
  %14 = getelementptr inbounds [16 x %class.XMarkStripe], ptr %12, i64 0, i64 %13
  %15 = call noundef zeroext i1 @_ZNK11XMarkStripe8is_emptyEv(ptr noundef nonnull align 64 dereferenceable(72) %14)
  br i1 %15, label %17, label %16

16:                                               ; preds = %11
  store i1 false, ptr %2, align 1
  br label %22

17:                                               ; preds = %11
  br label %18

18:                                               ; preds = %17
  %19 = load i64, ptr %4, align 8
  %20 = add i64 %19, 1
  store i64 %20, ptr %4, align 8
  br label %6, !llvm.loop !6

21:                                               ; preds = %6
  store i1 true, ptr %2, align 1
  br label %22

22:                                               ; preds = %21, %16
  %23 = load i1, ptr %2, align 1
  ret i1 %23
}