; Function Attrs: mustprogress nofree norecurse nounwind memory(read, argmem: readwrite, inaccessiblemem: readwrite) uwtable
define hidden noundef zeroext i1 @_ZNK14XMarkStripeSet8is_emptyEv(ptr noundef nonnull align 64 dereferenceable(2112) %0) local_unnamed_addr #2 align 2 {
  %2 = load i64, ptr %0, align 64
  %3 = icmp eq i64 %2, 0
  br i1 %3, label %_ZNK11XMarkStripe8is_emptyEv.exit.thread, label %.lr.ph

.lr.ph:                                           ; preds = %1
  %4 = getelementptr inbounds i8, ptr %0, i64 64
  %5 = load i64, ptr @XMarkStackSpaceStart, align 8
  %6 = load volatile ptr, ptr %4, align 64
  %7 = ptrtoint ptr %6 to i64
  %8 = lshr i64 %7, 32
  %9 = icmp eq i64 %8, 4294967295
  %.neg.i.i9 = mul nsw i64 %8, -2048
  %10 = icmp eq i64 %5, %.neg.i.i9
  %11 = select i1 %9, i1 true, i1 %10
  br i1 %11, label %_ZNK11XMarkStripe8is_emptyEv.exit, label %_ZNK11XMarkStripe8is_emptyEv.exit.thread

12:                                               ; preds = %_ZNK11XMarkStripe8is_emptyEv.exit
  %13 = add nuw i64 %.0510, 1
  %14 = icmp uge i64 %13, %2
  %exitcond = icmp eq i64 %13, %2
  br i1 %exitcond, label %_ZNK11XMarkStripe8is_emptyEv.exit.thread, label %15, !llvm.loop !6

15:                                               ; preds = %12
  %16 = getelementptr inbounds [16 x %class.XMarkStripe], ptr %4, i64 0, i64 %13
  %17 = load volatile ptr, ptr %16, align 64
  %18 = ptrtoint ptr %17 to i64
  %19 = lshr i64 %18, 32
  %20 = icmp eq i64 %19, 4294967295
  %.neg.i.i = mul nsw i64 %19, -2048
  %21 = icmp eq i64 %5, %.neg.i.i
  %22 = select i1 %20, i1 true, i1 %21
  br i1 %22, label %_ZNK11XMarkStripe8is_emptyEv.exit, label %_ZNK11XMarkStripe8is_emptyEv.exit.thread, !llvm.loop !6

_ZNK11XMarkStripe8is_emptyEv.exit:                ; preds = %.lr.ph, %15
  %23 = phi ptr [ %16, %15 ], [ %4, %.lr.ph ]
  %.0510 = phi i64 [ %13, %15 ], [ 0, %.lr.ph ]
  %24 = phi i1 [ %14, %15 ], [ false, %.lr.ph ]
  %25 = getelementptr inbounds i8, ptr %23, i64 64
  %26 = load volatile ptr, ptr %25, align 8
  %27 = ptrtoint ptr %26 to i64
  %28 = lshr i64 %27, 32
  %29 = icmp eq i64 %28, 4294967295
  %.neg.i1.i = mul nsw i64 %28, -2048
  %30 = icmp eq i64 %5, %.neg.i1.i
  %31 = select i1 %29, i1 true, i1 %30
  br i1 %31, label %12, label %_ZNK11XMarkStripe8is_emptyEv.exit.thread

_ZNK11XMarkStripe8is_emptyEv.exit.thread:         ; preds = %15, %12, %_ZNK11XMarkStripe8is_emptyEv.exit, %.lr.ph, %1
  %.lcssa = phi i1 [ true, %1 ], [ false, %.lr.ph ], [ %24, %_ZNK11XMarkStripe8is_emptyEv.exit ], [ %14, %12 ], [ %14, %15 ]
  ret i1 %.lcssa
}